(lp0
(Vdate_col
p1
VProduct Name
p2
VAd Spend
p3
VCTR
p4
tp5
a(cdatetime
date
p6
(S'\x07\xe1\x06\x05'
p7
tp8
Rp9
S'Un-Mapped'
p10
F0.0
Ntp11
a(g6
(S'\x07\xe1\x06\x07'
p12
tp13
Rp14
S'Un-Mapped'
p15
F0.2112741027958691
cdecimal
Decimal
p16
(S'34.3750'
p17
tp18
Rp19
tp20
a(g6
(S'\x07\xe1\x06\x08'
p21
tp22
Rp23
S'Un-Mapped'
p24
F0.5454706391319633
g16
(S'18.7500'
p25
tp26
Rp27
tp28
a(g6
(S'\x07\xe1\x06\t'
p29
tp30
Rp31
S'Un-Mapped'
p32
F22.28466623229906
g16
(S'1.1999'
p33
tp34
Rp35
tp36
a(g6
(S'\x07\xe1\x06\n'
p37
tp38
Rp39
S'Un-Mapped'
p40
F1973.0967193883844
g16
(S'0.8975'
p41
tp42
Rp43
tp44
a(g6
(S'\x07\xe1\x06\x01'
p45
tp46
Rp47
S'Adara Media'
p48
F379.9252000809647
g16
(S'2.2151'
p49
tp50
Rp51
tp52
a(g6
(S'\x07\xe1\x06\x02'
p53
tp54
Rp55
S'Adara Media'
p56
F478.4318033903837
g16
(S'0.7277'
p57
tp58
Rp59
tp60
a(g6
(S'\x07\xe1\x06\x03'
p61
tp62
Rp63
S'Adara Media'
p64
F344.2157828034833
g16
(S'2.3893'
p65
tp66
Rp67
tp68
a(g6
(S'\x07\xe1\x06\x04'
p69
tp70
Rp71
S'Adara Media'
p72
F523.2150887697935
g16
(S'2.7617'
p73
tp74
Rp75
tp76
a(g6
(S'\x07\xe1\x06\x05'
p77
tp78
Rp79
S'Adara Media'
p80
F489.0466553932056
g16
(S'1.7171'
p81
tp82
Rp83
tp84
a(g6
(S'\x07\xe1\x06\x06'
p85
tp86
Rp87
S'Adara Media'
p88
F488.44898186344653
g16
(S'1.7878'
p89
tp90
Rp91
tp92
a(g6
(S'\x07\xe1\x06\x07'
p93
tp94
Rp95
S'Adara Media'
p96
F526.2837767601013
g16
(S'2.0562'
p97
tp98
Rp99
tp100
a(g6
(S'\x07\xe1\x06\x08'
p101
tp102
Rp103
S'Adara Media'
p104
F512.0810089074075
g16
(S'1.6684'
p105
tp106
Rp107
tp108
a(g6
(S'\x07\xe1\x06\t'
p109
tp110
Rp111
S'Adara Media'
p112
F443.33246668148786
g16
(S'1.4269'
p113
tp114
Rp115
tp116
a(g6
(S'\x07\xe1\x06\n'
p117
tp118
Rp119
S'Adara Media'
p120
F310.0376537311822
g16
(S'2.9928'
p121
tp122
Rp123
tp124
a(g6
(S'\x07\xe1\x06\x01'
p125
tp126
Rp127
S'Amazon.com'
p128
F0.0
g16
(S'0.0000'
p129
tp130
Rp131
tp132
a(g6
(S'\x07\xe1\x06\x01'
p133
tp134
Rp135
S'AODDISPLAY'
p136
F1079.0535456640646
g16
(S'0.1204'
p137
tp138
Rp139
tp140
a(g6
(S'\x07\xe1\x06\x02'
p141
tp142
Rp143
S'AODDISPLAY'
p144
F1329.1675618216395
g16
(S'0.0527'
p145
tp146
Rp147
tp148
a(g6
(S'\x07\xe1\x06\x03'
p149
tp150
Rp151
S'AODDISPLAY'
p152
F956.3108855448663
g16
(S'0.0956'
p153
tp154
Rp155
tp156
a(g6
(S'\x07\xe1\x06\x04'
p157
tp158
Rp159
S'AODDISPLAY'
p160
F970.0308942804113
g16
(S'0.1072'
p161
tp162
Rp163
tp164
a(g6
(S'\x07\xe1\x06\x05'
p165
tp166
Rp167
S'AODDISPLAY'
p168
F1275.5498286327347
g16
(S'0.1123'
p169
tp170
Rp171
tp172
a(g6
(S'\x07\xe1\x06\x06'
p173
tp174
Rp175
S'AODDISPLAY'
p176
F1083.4630227535963
g16
(S'0.0943'
p177
tp178
Rp179
tp180
a(g6
(S'\x07\xe1\x06\x07'
p181
tp182
Rp183
S'AODDISPLAY'
p184
F1143.884179987479
g16
(S'0.1108'
p185
tp186
Rp187
tp188
a(g6
(S'\x07\xe1\x06\x08'
p189
tp190
Rp191
S'AODDISPLAY'
p192
F1277.8263099202886
g16
(S'0.0870'
p193
tp194
Rp195
tp196
a(g6
(S'\x07\xe1\x06\t'
p197
tp198
Rp199
S'AODDISPLAY'
p200
F1263.1042676256038
g16
(S'0.0718'
p201
tp202
Rp203
tp204
a(g6
(S'\x07\xe1\x06\n'
p205
tp206
Rp207
S'AODDISPLAY'
p208
F1062.18993182946
g16
(S'0.0662'
p209
tp210
Rp211
tp212
a(g6
(S'\x07\xe1\x06\x01'
p213
tp214
Rp215
S'Captify'
p216
F1538.8339160010219
g16
(S'0.0656'
p217
tp218
Rp219
tp220
a(g6
(S'\x07\xe1\x06\x02'
p221
tp222
Rp223
S'Captify'
p224
F1058.4698421861976
g16
(S'0.0276'
p225
tp226
Rp227
tp228
a(g6
(S'\x07\xe1\x06\x03'
p229
tp230
Rp231
S'Captify'
p232
F1589.1056010033935
g16
(S'0.0719'
p233
tp234
Rp235
tp236
a(g6
(S'\x07\xe1\x06\x04'
p237
tp238
Rp239
S'Captify'
p240
F1383.1077818199992
g16
(S'0.0622'
p241
tp242
Rp243
tp244
a(g6
(S'\x07\xe1\x06\x05'
p245
tp246
Rp247
S'Captify'
p248
F1067.4762080879882
g16
(S'0.0726'
p249
tp250
Rp251
tp252
a(g6
(S'\x07\xe1\x06\x06'
p253
tp254
Rp255
S'Captify'
p256
F1108.1530040120706
g16
(S'0.0416'
p257
tp258
Rp259
tp260
a(g6
(S'\x07\xe1\x06\x07'
p261
tp262
Rp263
S'Captify'
p264
F965.7933180499822
g16
(S'0.0444'
p265
tp266
Rp267
tp268
a(g6
(S'\x07\xe1\x06\x08'
p269
tp270
Rp271
S'Captify'
p272
F826.9880196815357
g16
(S'0.0305'
p273
tp274
Rp275
tp276
a(g6
(S'\x07\xe1\x06\t'
p277
tp278
Rp279
S'Captify'
p280
F815.8913895995356
g16
(S'0.0504'
p281
tp282
Rp283
tp284
a(g6
(S'\x07\xe1\x06\n'
p285
tp286
Rp287
S'Captify'
p288
F961.9300942113623
g16
(S'0.0394'
p289
tp290
Rp291
tp292
a(g6
(S'\x07\xe1\x06\x01'
p293
tp294
Rp295
S'Cardlytics'
p296
F1778.0550245475024
g16
(S'0.1182'
p297
tp298
Rp299
tp300
a(g6
(S'\x07\xe1\x06\x02'
p301
tp302
Rp303
S'Cardlytics'
p304
F1832.1989612746984
g16
(S'0.0836'
p305
tp306
Rp307
tp308
a(g6
(S'\x07\xe1\x06\x03'
p309
tp310
Rp311
S'Cardlytics'
p312
F1686.9575945232064
g16
(S'0.1683'
p313
tp314
Rp315
tp316
a(g6
(S'\x07\xe1\x06\x04'
p317
tp318
Rp319
S'Cardlytics'
p320
F1659.1960899624974
g16
(S'0.1616'
p321
tp322
Rp323
tp324
a(g6
(S'\x07\xe1\x06\x05'
p325
tp326
Rp327
S'Cardlytics'
p328
F1554.6275877738371
g16
(S'0.1335'
p329
tp330
Rp331
tp332
a(g6
(S'\x07\xe1\x06\x06'
p333
tp334
Rp335
S'Cardlytics'
p336
F1412.2505487445742
g16
(S'0.1457'
p337
tp338
Rp339
tp340
a(g6
(S'\x07\xe1\x06\x07'
p341
tp342
Rp343
S'Cardlytics'
p344
F1421.7162216249853
g16
(S'0.1351'
p345
tp346
Rp347
tp348
a(g6
(S'\x07\xe1\x06\x08'
p349
tp350
Rp351
S'Cardlytics'
p352
F1476.6844501122832
g16
(S'0.1459'
p353
tp354
Rp355
tp356
a(g6
(S'\x07\xe1\x06\t'
p357
tp358
Rp359
S'Cardlytics'
p360
F1374.821083491668
g16
(S'0.1390'
p361
tp362
Rp363
tp364
a(g6
(S'\x07\xe1\x06\n'
p365
tp366
Rp367
S'Cardlytics'
p368
F1413.6960879010148
g16
(S'0.1464'
p369
tp370
Rp371
tp372
a(g6
(S'\x07\xe1\x06\x01'
p373
tp374
Rp375
S'clearstream.tv'
p376
F368.9963185363449
g16
(S'0.6647'
p377
tp378
Rp379
tp380
a(g6
(S'\x07\xe1\x06\x02'
p381
tp382
Rp383
S'clearstream.tv'
p384
F617.8821455202997
g16
(S'0.3576'
p385
tp386
Rp387
tp388
a(g6
(S'\x07\xe1\x06\x03'
p389
tp390
Rp391
S'clearstream.tv'
p392
F641.2149022324011
g16
(S'0.5904'
p393
tp394
Rp395
tp396
a(g6
(S'\x07\xe1\x06\x04'
p397
tp398
Rp399
S'clearstream.tv'
p400
F574.015023640357
g16
(S'0.5830'
p401
tp402
Rp403
tp404
a(g6
(S'\x07\xe1\x06\x05'
p405
tp406
Rp407
S'clearstream.tv'
p408
F469.1876283781603
g16
(S'0.6988'
p409
tp410
Rp411
tp412
a(g6
(S'\x07\xe1\x06\x06'
p413
tp414
Rp415
S'clearstream.tv'
p416
F330.37126397527754
g16
(S'0.6666'
p417
tp418
Rp419
tp420
a(g6
(S'\x07\xe1\x06\x07'
p421
tp422
Rp423
S'clearstream.tv'
p424
F447.10880979849026
g16
(S'0.4696'
p425
tp426
Rp427
tp428
a(g6
(S'\x07\xe1\x06\x08'
p429
tp430
Rp431
S'clearstream.tv'
p432
F414.73495563678443
g16
(S'0.6691'
p433
tp434
Rp435
tp436
a(g6
(S'\x07\xe1\x06\t'
p437
tp438
Rp439
S'clearstream.tv'
p440
F242.4509061826393
g16
(S'0.9253'
p441
tp442
Rp443
tp444
a(g6
(S'\x07\xe1\x06\n'
p445
tp446
Rp447
S'clearstream.tv'
p448
F182.0171679034829
g16
(S'1.1674'
p449
tp450
Rp451
tp452
a(g6
(S'\x07\xe1\x06\x01'
p453
tp454
Rp455
S'DeepIntent'
p456
F1428.52408001991
g16
(S'0.2965'
p457
tp458
Rp459
tp460
a(g6
(S'\x07\xe1\x06\x02'
p461
tp462
Rp463
S'DeepIntent'
p464
F1932.7653197217733
g16
(S'0.1907'
p465
tp466
Rp467
tp468
a(g6
(S'\x07\xe1\x06\x03'
p469
tp470
Rp471
S'DeepIntent'
p472
F1709.7867284165695
g16
(S'0.3784'
p473
tp474
Rp475
tp476
a(g6
(S'\x07\xe1\x06\x04'
p477
tp478
Rp479
S'DeepIntent'
p480
F1688.3765450902283
g16
(S'0.4186'
p481
tp482
Rp483
tp484
a(g6
(S'\x07\xe1\x06\x05'
p485
tp486
Rp487
S'DeepIntent'
p488
F1444.4587489608675
g16
(S'0.3898'
p489
tp490
Rp491
tp492
a(g6
(S'\x07\xe1\x06\x06'
p493
tp494
Rp495
S'DeepIntent'
p496
F1321.0812294185162
g16
(S'0.3620'
p497
tp498
Rp499
tp500
a(g6
(S'\x07\xe1\x06\x07'
p501
tp502
Rp503
S'DeepIntent'
p504
F1409.9706976818852
g16
(S'0.3306'
p505
tp506
Rp507
tp508
a(g6
(S'\x07\xe1\x06\x08'
p509
tp510
Rp511
S'DeepIntent'
p512
F1461.1453535947949
g16
(S'0.3061'
p513
tp514
Rp515
tp516
a(g6
(S'\x07\xe1\x06\t'
p517
tp518
Rp519
S'DeepIntent'
p520
F1450.961991989985
g16
(S'0.2616'
p521
tp522
Rp523
tp524
a(g6
(S'\x07\xe1\x06\n'
p525
tp526
Rp527
S'DeepIntent'
p528
F1472.16317366343
g16
(S'0.3304'
p529
tp530
Rp531
tp532
a(g6
(S'\x07\xe1\x06\x01'
p533
tp534
Rp535
S'Media IQ'
p536
F2358.445798977278
g16
(S'0.3187'
p537
tp538
Rp539
tp540
a(g6
(S'\x07\xe1\x06\x02'
p541
tp542
Rp543
S'Media IQ'
p544
F2882.5401162803173
g16
(S'0.1978'
p545
tp546
Rp547
tp548
a(g6
(S'\x07\xe1\x06\x03'
p549
tp550
Rp551
S'Media IQ'
p552
F2530.974889803678
g16
(S'0.4052'
p553
tp554
Rp555
tp556
a(g6
(S'\x07\xe1\x06\x04'
p557
tp558
Rp559
S'Media IQ'
p560
F2405.572796742432
g16
(S'0.3920'
p561
tp562
Rp563
tp564
a(g6
(S'\x07\xe1\x06\x05'
p565
tp566
Rp567
S'Media IQ'
p568
F2361.038215368986
g16
(S'0.3671'
p569
tp570
Rp571
tp572
a(g6
(S'\x07\xe1\x06\x06'
p573
tp574
Rp575
S'Media IQ'
p576
F2113.6908296225592
g16
(S'0.3624'
p577
tp578
Rp579
tp580
a(g6
(S'\x07\xe1\x06\x07'
p581
tp582
Rp583
S'Media IQ'
p584
F2096.8425858770497
g16
(S'0.4040'
p585
tp586
Rp587
tp588
a(g6
(S'\x07\xe1\x06\x08'
p589
tp590
Rp591
S'Media IQ'
p592
F2161.3796248929575
g16
(S'0.3928'
p593
tp594
Rp595
tp596
a(g6
(S'\x07\xe1\x06\t'
p597
tp598
Rp599
S'Media IQ'
p600
F2056.5348995812237
g16
(S'0.3834'
p601
tp602
Rp603
tp604
a(g6
(S'\x07\xe1\x06\n'
p605
tp606
Rp607
S'Media IQ'
p608
F2111.3549728547223
g16
(S'0.3911'
p609
tp610
Rp611
tp612
a(g6
(S'\x07\xe1\x06\x01'
p613
tp614
Rp615
S'Opera Mediaworks'
p616
F0.0
g16
(S'0.0000'
p617
tp618
Rp619
tp620
a(g6
(S'\x07\xe1\x06\x01'
p621
tp622
Rp623
S'QuantCast'
p624
F1464.7905769618228
g16
(S'0.1056'
p625
tp626
Rp627
tp628
a(g6
(S'\x07\xe1\x06\x02'
p629
tp630
Rp631
S'QuantCast'
p632
F2091.991906126961
g16
(S'0.1267'
p633
tp634
Rp635
tp636
a(g6
(S'\x07\xe1\x06\x03'
p637
tp638
Rp639
S'QuantCast'
p640
F1886.1618387233466
g16
(S'0.2591'
p641
tp642
Rp643
tp644
a(g6
(S'\x07\xe1\x06\x04'
p645
tp646
Rp647
S'QuantCast'
p648
F1849.0019142571837
g16
(S'0.2317'
p649
tp650
Rp651
tp652
a(g6
(S'\x07\xe1\x06\x05'
p653
tp654
Rp655
S'QuantCast'
p656
F1545.3517380179837
g16
(S'0.2368'
p657
tp658
Rp659
tp660
a(g6
(S'\x07\xe1\x06\x06'
p661
tp662
Rp663
S'QuantCast'
p664
F1375.0925291664898
g16
(S'0.2069'
p665
tp666
Rp667
tp668
a(g6
(S'\x07\xe1\x06\x07'
p669
tp670
Rp671
S'QuantCast'
p672
F1492.8693741774186
g16
(S'0.2189'
p673
tp674
Rp675
tp676
a(g6
(S'\x07\xe1\x06\x08'
p677
tp678
Rp679
S'QuantCast'
p680
F1614.8180687762797
g16
(S'0.2200'
p681
tp682
Rp683
tp684
a(g6
(S'\x07\xe1\x06\t'
p685
tp686
Rp687
S'QuantCast'
p688
F1401.3187638889067
g16
(S'0.2299'
p689
tp690
Rp691
tp692
a(g6
(S'\x07\xe1\x06\n'
p693
tp694
Rp695
S'QuantCast'
p696
F1422.1194938714616
g16
(S'0.2736'
p697
tp698
Rp699
tp700
a(g6
(S'\x07\xe1\x06\x01'
p701
tp702
Rp703
S'Scripps Networks \xe2\x80\x93 HGTV'
p704
F58.98818008881062
g16
(S'0.0000'
p705
tp706
Rp707
tp708
a(g6
(S'\x07\xe1\x06\x02'
p709
tp710
Rp711
S'Scripps Networks \xe2\x80\x93 HGTV'
p712
F544.9885965809226
g16
(S'0.0239'
p713
tp714
Rp715
tp716
a(g6
(S'\x07\xe1\x06\x03'
p717
tp718
Rp719
S'Scripps Networks \xe2\x80\x93 HGTV'
p720
F137.88865952566266
g16
(S'0.0296'
p721
tp722
Rp723
tp724
a(g6
(S'\x07\xe1\x06\x04'
p725
tp726
Rp727
S'Scripps Networks \xe2\x80\x93 HGTV'
p728
F79.18284454103559
g16
(S'0.0395'
p729
tp730
Rp731
tp732
a(g6
(S'\x07\xe1\x06\x05'
p733
tp734
Rp735
S'Scripps Networks \xe2\x80\x93 HGTV'
p736
F62.876537594012916
g16
(S'0.1760'
p737
tp738
Rp739
tp740
a(g6
(S'\x07\xe1\x06\x06'
p741
tp742
Rp743
S'Scripps Networks \xe2\x80\x93 HGTV'
p744
F57.084146303124726
g16
(S'0.1105'
p745
tp746
Rp747
tp748
a(g6
(S'\x07\xe1\x06\x07'
p749
tp750
Rp751
S'Scripps Networks \xe2\x80\x93 HGTV'
p752
F64.53763484815136
g16
(S'0.1125'
p753
tp754
Rp755
tp756
a(g6
(S'\x07\xe1\x06\x08'
p757
tp758
Rp759
S'Scripps Networks \xe2\x80\x93 HGTV'
p760
F58.794915339909494
g16
(S'0.1624'
p761
tp762
Rp763
tp764
a(g6
(S'\x07\xe1\x06\t'
p765
tp766
Rp767
S'Scripps Networks \xe2\x80\x93 HGTV'
p768
F51.5345132634975
g16
(S'0.0506'
p769
tp770
Rp771
tp772
a(g6
(S'\x07\xe1\x06\n'
p773
tp774
Rp775
S'Scripps Networks \xe2\x80\x93 HGTV'
p776
F60.50911781284958
g16
(S'0.0684'
p777
tp778
Rp779
tp780
a(g6
(S'\x07\xe1\x06\x01'
p781
tp782
Rp783
S'Spotify USA'
p784
F256.4209669334814
g16
(S'0.6008'
p785
tp786
Rp787
tp788
a(g6
(S'\x07\xe1\x06\x02'
p789
tp790
Rp791
S'Spotify USA'
p792
F336.23785311356187
g16
(S'0.3120'
p793
tp794
Rp795
tp796
a(g6
(S'\x07\xe1\x06\x03'
p797
tp798
Rp799
S'Spotify USA'
p800
F225.58258225489408
g16
(S'0.6583'
p801
tp802
Rp803
tp804
a(g6
(S'\x07\xe1\x06\x04'
p805
tp806
Rp807
S'Spotify USA'
p808
F227.055456972681
g16
(S'0.8127'
p809
tp810
Rp811
tp812
a(g6
(S'\x07\xe1\x06\x05'
p813
tp814
Rp815
S'Spotify USA'
p816
F231.96531251259148
g16
(S'0.6859'
p817
tp818
Rp819
tp820
a(g6
(S'\x07\xe1\x06\x06'
p821
tp822
Rp823
S'Spotify USA'
p824
F217.95076736342162
g16
(S'0.6919'
p825
tp826
Rp827
tp828
a(g6
(S'\x07\xe1\x06\x07'
p829
tp830
Rp831
S'Spotify USA'
p832
F219.67884538602084
g16
(S'0.7844'
p833
tp834
Rp835
tp836
a(g6
(S'\x07\xe1\x06\x08'
p837
tp838
Rp839
S'Spotify USA'
p840
F217.2677699662745
g16
(S'0.7187'
p841
tp842
Rp843
tp844
a(g6
(S'\x07\xe1\x06\t'
p845
tp846
Rp847
S'Spotify USA'
p848
F212.67932349583134
g16
(S'0.7543'
p849
tp850
Rp851
tp852
a(g6
(S'\x07\xe1\x06\n'
p853
tp854
Rp855
S'Spotify USA'
p856
F210.2676316355355
g16
(S'0.7513'
p857
tp858
Rp859
tp860
a(g6
(S'\x07\xe1\x06\x01'
p861
tp862
Rp863
S'Undertone Networks'
p864
F2062.562416068744
g16
(S'2.2164'
p865
tp866
Rp867
tp868
a(g6
(S'\x07\xe1\x06\x02'
p869
tp870
Rp871
S'Undertone Networks'
p872
F6005.992930011824
g16
(S'0.6023'
p873
tp874
Rp875
tp876
a(g6
(S'\x07\xe1\x06\x03'
p877
tp878
Rp879
S'Undertone Networks'
p880
F4408.863413121551
g16
(S'1.0243'
p881
tp882
Rp883
tp884
a(g6
(S'\x07\xe1\x06\x04'
p885
tp886
Rp887
S'Undertone Networks'
p888
F3982.5678733503446
g16
(S'1.0107'
p889
tp890
Rp891
tp892
a(g6
(S'\x07\xe1\x06\x05'
p893
tp894
Rp895
S'Undertone Networks'
p896
F2080.1343132406473
g16
(S'1.4545'
p897
tp898
Rp899
tp900
a(g6
(S'\x07\xe1\x06\x06'
p901
tp902
Rp903
S'Undertone Networks'
p904
F1204.3448722409084
g16
(S'2.1418'
p905
tp906
Rp907
tp908
a(g6
(S'\x07\xe1\x06\x07'
p909
tp910
Rp911
S'Undertone Networks'
p912
F1476.172108254861
g16
(S'1.9657'
p913
tp914
Rp915
tp916
a(g6
(S'\x07\xe1\x06\x08'
p917
tp918
Rp919
S'Undertone Networks'
p920
F1760.3359993882477
g16
(S'1.8418'
p921
tp922
Rp923
tp924
a(g6
(S'\x07\xe1\x06\t'
p925
tp926
Rp927
S'Undertone Networks'
p928
F1653.1087512047961
g16
(S'1.8814'
p929
tp930
Rp931
tp932
a(g6
(S'\x07\xe1\x06\n'
p933
tp934
Rp935
S'Undertone Networks'
p936
F1721.2915743142366
g16
(S'1.9887'
p937
tp938
Rp939
tp940
a(g6
(S'\x07\xe1\x06\x01'
p941
tp942
Rp943
S'Valassis'
p944
F1184.276520155836
g16
(S'0.4652'
p945
tp946
Rp947
tp948
a(g6
(S'\x07\xe1\x06\x02'
p949
tp950
Rp951
S'Valassis'
p952
F1668.7153857015073
g16
(S'0.2356'
p953
tp954
Rp955
tp956
a(g6
(S'\x07\xe1\x06\x03'
p957
tp958
Rp959
S'Valassis'
p960
F1530.7844157833606
g16
(S'0.4744'
p961
tp962
Rp963
tp964
a(g6
(S'\x07\xe1\x06\x04'
p965
tp966
Rp967
S'Valassis'
p968
F1309.5702450284734
g16
(S'0.5535'
p969
tp970
Rp971
tp972
a(g6
(S'\x07\xe1\x06\x05'
p973
tp974
Rp975
S'Valassis'
p976
F1176.7043079212308
g16
(S'0.4309'
p977
tp978
Rp979
tp980
a(g6
(S'\x07\xe1\x06\x06'
p981
tp982
Rp983
S'Valassis'
p984
F1093.7226410647854
g16
(S'0.4644'
p985
tp986
Rp987
tp988
a(g6
(S'\x07\xe1\x06\x07'
p989
tp990
Rp991
S'Valassis'
p992
F1163.9222128731199
g16
(S'0.4952'
p993
tp994
Rp995
tp996
a(g6
(S'\x07\xe1\x06\x08'
p997
tp998
Rp999
S'Valassis'
p1000
F1151.5566808702424
g16
(S'0.4234'
p1001
tp1002
Rp1003
tp1004
a(g6
(S'\x07\xe1\x06\t'
p1005
tp1006
Rp1007
S'Valassis'
p1008
F1152.307029702235
g16
(S'0.4896'
p1009
tp1010
Rp1011
tp1012
a(g6
(S'\x07\xe1\x06\n'
p1013
tp1014
Rp1015
S'Valassis'
p1016
F1230.8234758381732
g16
(S'0.6474'
p1017
tp1018
Rp1019
tp1020
a(g6
(S'\x07\xe1\x06\x01'
p1021
tp1022
Rp1023
S'Zillow Inc'
p1024
F4499.334912357386
g16
(S'0.1877'
p1025
tp1026
Rp1027
tp1028
a(g6
(S'\x07\xe1\x06\x02'
p1029
tp1030
Rp1031
S'Zillow Inc'
p1032
F12337.732017938048
g16
(S'0.0921'
p1033
tp1034
Rp1035
tp1036
a(g6
(S'\x07\xe1\x06\x03'
p1037
tp1038
Rp1039
S'Zillow Inc'
p1040
F10902.790991265327
g16
(S'0.1745'
p1041
tp1042
Rp1043
tp1044
a(g6
(S'\x07\xe1\x06\x04'
p1045
tp1046
Rp1047
S'Zillow Inc'
p1048
F13063.691499993205
g16
(S'0.1739'
p1049
tp1050
Rp1051
tp1052
a(g6
(S'\x07\xe1\x06\x05'
p1053
tp1054
Rp1055
S'Zillow Inc'
p1056
F10168.740869879723
g16
(S'0.1688'
p1057
tp1058
Rp1059
tp1060
a(g6
(S'\x07\xe1\x06\x06'
p1061
tp1062
Rp1063
S'Zillow Inc'
p1064
F8793.804199506529
g16
(S'0.1756'
p1065
tp1066
Rp1067
tp1068
a(g6
(S'\x07\xe1\x06\x07'
p1069
tp1070
Rp1071
S'Zillow Inc'
p1072
F5806.11589121772
g16
(S'0.1756'
p1073
tp1074
Rp1075
tp1076
a(g6
(S'\x07\xe1\x06\x08'
p1077
tp1078
Rp1079
S'Zillow Inc'
p1080
F3867.7890355261043
g16
(S'0.1523'
p1081
tp1082
Rp1083
tp1084
a(g6
(S'\x07\xe1\x06\t'
p1085
tp1086
Rp1087
S'Zillow Inc'
p1088
F5997.777360486798
g16
(S'0.1764'
p1089
tp1090
Rp1091
tp1092
a(g6
(S'\x07\xe1\x06\n'
p1093
tp1094
Rp1095
S'Zillow Inc'
p1096
F7886.426375858486
g16
(S'0.1761'
p1097
tp1098
Rp1099
tp1100
a.