(lp0
(Vdate_col
p1
VProduct Name
p2
VAd Spend
p3
VCTR
p4
tp5
a(cdatetime
date
p6
(S'\x07\xe1\x06\x01'
p7
tp8
Rp9
S'Un-Mapped'
p10
L10L
L9L
tp11
a(g6
(S'\x07\xe1\x06\x02'
p12
tp13
Rp14
S'Un-Mapped'
p15
L10L
L13L
tp16
a(g6
(S'\x07\xe1\x06\x03'
p17
tp18
Rp19
S'Un-Mapped'
p20
L10L
L8L
tp21
a(g6
(S'\x07\xe1\x06\x04'
p22
tp23
Rp24
S'Un-Mapped'
p25
L11L
L8L
tp26
a(g6
(S'\x07\xe1\x06\x05'
p27
tp28
Rp29
S'Un-Mapped'
p30
L11L
L9L
tp31
a(g6
(S'\x07\xe1\x06\x06'
p32
tp33
Rp34
S'Un-Mapped'
p35
L12L
L9L
tp36
a(g6
(S'\x07\xe1\x06\x07'
p37
tp38
Rp39
S'Un-Mapped'
p40
L11L
L5L
tp41
a(g6
(S'\x07\xe1\x06\x08'
p42
tp43
Rp44
S'Un-Mapped'
p45
L11L
L6L
tp46
a(g6
(S'\x07\xe1\x06\t'
p47
tp48
Rp49
S'Un-Mapped'
p50
L12L
L4L
tp51
a(g6
(S'\x07\xe1\x06\n'
p52
tp53
Rp54
S'Un-Mapped'
p55
L12L
L4L
tp56
a(g6
(S'\x07\xe1\x06\x01'
p57
tp58
Rp59
S'Beltway Divisional Res'
p60
L1L
L1L
tp61
a(g6
(S'\x07\xe1\x06\x02'
p62
tp63
Rp64
S'Beltway Divisional Res'
p65
L1L
L1L
tp66
a(g6
(S'\x07\xe1\x06\x03'
p67
tp68
Rp69
S'Beltway Divisional Res'
p70
L1L
L1L
tp71
a(g6
(S'\x07\xe1\x06\x04'
p72
tp73
Rp74
S'Beltway Divisional Res'
p75
L1L
L1L
tp76
a(g6
(S'\x07\xe1\x06\x08'
p77
tp78
Rp79
S'Beltway Divisional Res'
p80
L1L
L0L
tp81
a(g6
(S'\x07\xe1\x06\n'
p82
tp83
Rp84
S'Beltway Divisional Res'
p85
L1L
L2L
tp86
a(g6
(S'\x07\xe1\x06\x01'
p87
tp88
Rp89
S'Brand'
p90
L12L
L22L
tp91
a(g6
(S'\x07\xe1\x06\x02'
p92
tp93
Rp94
S'Brand'
p95
L11L
L21L
tp96
a(g6
(S'\x07\xe1\x06\x03'
p97
tp98
Rp99
S'Brand'
p100
L7L
L17L
tp101
a(g6
(S'\x07\xe1\x06\x04'
p102
tp103
Rp104
S'Brand'
p105
L6L
L16L
tp106
a(g6
(S'\x07\xe1\x06\x05'
p107
tp108
Rp109
S'Brand'
p110
L12L
L19L
tp111
a(g6
(S'\x07\xe1\x06\x06'
p112
tp113
Rp114
S'Brand'
p115
L9L
L17L
tp116
a(g6
(S'\x07\xe1\x06\x07'
p117
tp118
Rp119
S'Brand'
p120
L7L
L20L
tp121
a(g6
(S'\x07\xe1\x06\x08'
p122
tp123
Rp124
S'Brand'
p125
L11L
L21L
tp126
a(g6
(S'\x07\xe1\x06\t'
p127
tp128
Rp129
S'Brand'
p130
L8L
L20L
tp131
a(g6
(S'\x07\xe1\x06\n'
p132
tp133
Rp134
S'Brand'
p135
L6L
L16L
tp136
a(g6
(S'\x07\xe1\x06\x01'
p137
tp138
Rp139
S'Corporate Reputation Image'
p140
L2L
L4L
tp141
a(g6
(S'\x07\xe1\x06\x02'
p142
tp143
Rp144
S'Corporate Reputation Image'
p145
L4L
L6L
tp146
a(g6
(S'\x07\xe1\x06\x03'
p147
tp148
Rp149
S'Corporate Reputation Image'
p150
L3L
L5L
tp151
a(g6
(S'\x07\xe1\x06\x04'
p152
tp153
Rp154
S'Corporate Reputation Image'
p155
L3L
L4L
tp156
a(g6
(S'\x07\xe1\x06\x05'
p157
tp158
Rp159
S'Corporate Reputation Image'
p160
L3L
L5L
tp161
a(g6
(S'\x07\xe1\x06\x06'
p162
tp163
Rp164
S'Corporate Reputation Image'
p165
L4L
L5L
tp166
a(g6
(S'\x07\xe1\x06\x07'
p167
tp168
Rp169
S'Corporate Reputation Image'
p170
L4L
L7L
tp171
a(g6
(S'\x07\xe1\x06\x08'
p172
tp173
Rp174
S'Corporate Reputation Image'
p175
L6L
L6L
tp176
a(g6
(S'\x07\xe1\x06\t'
p177
tp178
Rp179
S'Corporate Reputation Image'
p180
L5L
L7L
tp181
a(g6
(S'\x07\xe1\x06\n'
p182
tp183
Rp184
S'Corporate Reputation Image'
p185
L4L
L6L
tp186
a(g6
(S'\x07\xe1\x06\x01'
p187
tp188
Rp189
S'Corporate Reputation Transaction'
p190
L4L
L1L
tp191
a(g6
(S'\x07\xe1\x06\x02'
p192
tp193
Rp194
S'Corporate Reputation Transaction'
p195
L4L
L1L
tp196
a(g6
(S'\x07\xe1\x06\x03'
p197
tp198
Rp199
S'Corporate Reputation Transaction'
p200
L5L
L1L
tp201
a(g6
(S'\x07\xe1\x06\x04'
p202
tp203
Rp204
S'Corporate Reputation Transaction'
p205
L4L
L1L
tp206
a(g6
(S'\x07\xe1\x06\x05'
p207
tp208
Rp209
S'Corporate Reputation Transaction'
p210
L4L
L1L
tp211
a(g6
(S'\x07\xe1\x06\x06'
p212
tp213
Rp214
S'Corporate Reputation Transaction'
p215
L5L
L3L
tp216
a(g6
(S'\x07\xe1\x06\x07'
p217
tp218
Rp219
S'Corporate Reputation Transaction'
p220
L5L
L2L
tp221
a(g6
(S'\x07\xe1\x06\x08'
p222
tp223
Rp224
S'Corporate Reputation Transaction'
p225
L4L
L3L
tp226
a(g6
(S'\x07\xe1\x06\t'
p227
tp228
Rp229
S'Corporate Reputation Transaction'
p230
L5L
L3L
tp231
a(g6
(S'\x07\xe1\x06\n'
p232
tp233
Rp234
S'Corporate Reputation Transaction'
p235
L5L
L2L
tp236
a(g6
(S'\x07\xe1\x06\x01'
p237
tp238
Rp239
S'DIVN'
p240
L2L
L3L
tp241
a(g6
(S'\x07\xe1\x06\x02'
p242
tp243
Rp244
S'DIVN'
p245
L2L
L4L
tp246
a(g6
(S'\x07\xe1\x06\x03'
p247
tp248
Rp249
S'DIVN'
p250
L1L
L3L
tp251
a(g6
(S'\x07\xe1\x06\x04'
p252
tp253
Rp254
S'DIVN'
p255
L1L
L3L
tp256
a(g6
(S'\x07\xe1\x06\x05'
p257
tp258
Rp259
S'DIVN'
p260
L1L
L3L
tp261
a(g6
(S'\x07\xe1\x06\x06'
p262
tp263
Rp264
S'DIVN'
p265
L3L
L3L
tp266
a(g6
(S'\x07\xe1\x06\x07'
p267
tp268
Rp269
S'DIVN'
p270
L2L
L3L
tp271
a(g6
(S'\x07\xe1\x06\x08'
p272
tp273
Rp274
S'DIVN'
p275
L2L
L6L
tp276
a(g6
(S'\x07\xe1\x06\t'
p277
tp278
Rp279
S'DIVN'
p280
L1L
L3L
tp281
a(g6
(S'\x07\xe1\x06\n'
p282
tp283
Rp284
S'DIVN'
p285
L2L
L3L
tp286
a(g6
(S'\x07\xe1\x06\x08'
p287
tp288
Rp289
S'Freedom Divisional Res'
p290
L2L
L1L
tp291
a(g6
(S'\x07\xe1\x06\x01'
p292
tp293
Rp294
S'Freedom Regional Res'
p295
L2L
L1L
tp296
a(g6
(S'\x07\xe1\x06\x02'
p297
tp298
Rp299
S'Freedom Regional Res'
p300
L2L
L1L
tp301
a(g6
(S'\x07\xe1\x06\x03'
p302
tp303
Rp304
S'Freedom Regional Res'
p305
L2L
L1L
tp306
a(g6
(S'\x07\xe1\x06\x04'
p307
tp308
Rp309
S'Freedom Regional Res'
p310
L2L
L1L
tp311
a(g6
(S'\x07\xe1\x06\x05'
p312
tp313
Rp314
S'Freedom Regional Res'
p315
L2L
L1L
tp316
a(g6
(S'\x07\xe1\x06\x06'
p317
tp318
Rp319
S'Freedom Regional Res'
p320
L2L
L1L
tp321
a(g6
(S'\x07\xe1\x06\x07'
p322
tp323
Rp324
S'Freedom Regional Res'
p325
L2L
L1L
tp326
a(g6
(S'\x07\xe1\x06\x08'
p327
tp328
Rp329
S'Freedom Regional Res'
p330
L2L
L1L
tp331
a(g6
(S'\x07\xe1\x06\t'
p332
tp333
Rp334
S'Freedom Regional Res'
p335
L2L
L1L
tp336
a(g6
(S'\x07\xe1\x06\n'
p337
tp338
Rp339
S'Freedom Regional Res'
p340
L2L
L1L
tp341
a(g6
(S'\x07\xe1\x06\x01'
p342
tp343
Rp344
S'GBR Divisional Res'
p345
L1L
L1L
tp346
a(g6
(S'\x07\xe1\x06\x02'
p347
tp348
Rp349
S'GBR Divisional Res'
p350
L1L
L1L
tp351
a(g6
(S'\x07\xe1\x06\x03'
p352
tp353
Rp354
S'GBR Divisional Res'
p355
L1L
L1L
tp356
a(g6
(S'\x07\xe1\x06\x04'
p357
tp358
Rp359
S'GBR Divisional Res'
p360
L1L
L1L
tp361
a(g6
(S'\x07\xe1\x06\x05'
p362
tp363
Rp364
S'GBR Divisional Res'
p365
L1L
L1L
tp366
a(g6
(S'\x07\xe1\x06\x06'
p367
tp368
Rp369
S'GBR Divisional Res'
p370
L1L
L1L
tp371
a(g6
(S'\x07\xe1\x06\x07'
p372
tp373
Rp374
S'GBR Divisional Res'
p375
L1L
L1L
tp376
a(g6
(S'\x07\xe1\x06\x08'
p377
tp378
Rp379
S'GBR Divisional Res'
p380
L1L
L1L
tp381
a(g6
(S'\x07\xe1\x06\t'
p382
tp383
Rp384
S'GBR Divisional Res'
p385
L1L
L1L
tp386
a(g6
(S'\x07\xe1\x06\n'
p387
tp388
Rp389
S'GBR Divisional Res'
p390
L1L
L1L
tp391
a(g6
(S'\x07\xe1\x06\x01'
p392
tp393
Rp394
S'GBR Regional Res'
p395
L1L
L9L
tp396
a(g6
(S'\x07\xe1\x06\x02'
p397
tp398
Rp399
S'GBR Regional Res'
p400
L2L
L10L
tp401
a(g6
(S'\x07\xe1\x06\x03'
p402
tp403
Rp404
S'GBR Regional Res'
p405
L1L
L9L
tp406
a(g6
(S'\x07\xe1\x06\x04'
p407
tp408
Rp409
S'GBR Regional Res'
p410
L1L
L9L
tp411
a(g6
(S'\x07\xe1\x06\x05'
p412
tp413
Rp414
S'GBR Regional Res'
p415
L1L
L9L
tp416
a(g6
(S'\x07\xe1\x06\x06'
p417
tp418
Rp419
S'GBR Regional Res'
p420
L1L
L9L
tp421
a(g6
(S'\x07\xe1\x06\x07'
p422
tp423
Rp424
S'GBR Regional Res'
p425
L1L
L9L
tp426
a(g6
(S'\x07\xe1\x06\x08'
p427
tp428
Rp429
S'GBR Regional Res'
p430
L1L
L9L
tp431
a(g6
(S'\x07\xe1\x06\t'
p432
tp433
Rp434
S'GBR Regional Res'
p435
L1L
L9L
tp436
a(g6
(S'\x07\xe1\x06\n'
p437
tp438
Rp439
S'GBR Regional Res'
p440
L1L
L9L
tp441
a(g6
(S'\x07\xe1\x06\x01'
p442
tp443
Rp444
S'Keystone Regional Res'
p445
L2L
L2L
tp446
a(g6
(S'\x07\xe1\x06\x01'
p447
tp448
Rp449
S'Movers'
p450
L4L
L7L
tp451
a(g6
(S'\x07\xe1\x06\x02'
p452
tp453
Rp454
S'Movers'
p455
L2L
L7L
tp456
a(g6
(S'\x07\xe1\x06\x03'
p457
tp458
Rp459
S'Movers'
p460
L3L
L7L
tp461
a(g6
(S'\x07\xe1\x06\x04'
p462
tp463
Rp464
S'Movers'
p465
L3L
L8L
tp466
a(g6
(S'\x07\xe1\x06\x05'
p467
tp468
Rp469
S'Movers'
p470
L3L
L7L
tp471
a(g6
(S'\x07\xe1\x06\x06'
p472
tp473
Rp474
S'Movers'
p475
L3L
L7L
tp476
a(g6
(S'\x07\xe1\x06\x07'
p477
tp478
Rp479
S'Movers'
p480
L3L
L10L
tp481
a(g6
(S'\x07\xe1\x06\x08'
p482
tp483
Rp484
S'Movers'
p485
L3L
L9L
tp486
a(g6
(S'\x07\xe1\x06\t'
p487
tp488
Rp489
S'Movers'
p490
L3L
L8L
tp491
a(g6
(S'\x07\xe1\x06\n'
p492
tp493
Rp494
S'Movers'
p495
L3L
L11L
tp496
a(g6
(S'\x07\xe1\x06\x01'
p497
tp498
Rp499
S'Multi-Dwelling Units'
p500
L1L
L2L
tp501
a(g6
(S'\x07\xe1\x06\x02'
p502
tp503
Rp504
S'Multi-Dwelling Units'
p505
L1L
L2L
tp506
a(g6
(S'\x07\xe1\x06\x05'
p507
tp508
Rp509
S'Multi-Dwelling Units'
p510
L1L
L2L
tp511
a(g6
(S'\x07\xe1\x06\x06'
p512
tp513
Rp514
S'Multi-Dwelling Units'
p515
L1L
L2L
tp516
a(g6
(S'\x07\xe1\x06\x07'
p517
tp518
Rp519
S'Multi-Dwelling Units'
p520
L1L
L2L
tp521
a(g6
(S'\x07\xe1\x06\x08'
p522
tp523
Rp524
S'Multi-Dwelling Units'
p525
L1L
L2L
tp526
a(g6
(S'\x07\xe1\x06\t'
p527
tp528
Rp529
S'Multi-Dwelling Units'
p530
L1L
L2L
tp531
a(g6
(S'\x07\xe1\x06\x01'
p532
tp533
Rp534
S'Multiple Product Codes'
p535
L1L
L1L
tp536
a(g6
(S'\x07\xe1\x06\x02'
p537
tp538
Rp539
S'Multiple Product Codes'
p540
L1L
L1L
tp541
a(g6
(S'\x07\xe1\x06\x03'
p542
tp543
Rp544
S'Multiple Product Codes'
p545
L1L
L1L
tp546
a(g6
(S'\x07\xe1\x06\x04'
p547
tp548
Rp549
S'Multiple Product Codes'
p550
L1L
L1L
tp551
a(g6
(S'\x07\xe1\x06\x05'
p552
tp553
Rp554
S'Multiple Product Codes'
p555
L1L
L1L
tp556
a(g6
(S'\x07\xe1\x06\x06'
p557
tp558
Rp559
S'Multiple Product Codes'
p560
L1L
L1L
tp561
a(g6
(S'\x07\xe1\x06\x07'
p562
tp563
Rp564
S'Multiple Product Codes'
p565
L1L
L1L
tp566
a(g6
(S'\x07\xe1\x06\x08'
p567
tp568
Rp569
S'Multiple Product Codes'
p570
L1L
L1L
tp571
a(g6
(S'\x07\xe1\x06\t'
p572
tp573
Rp574
S'Multiple Product Codes'
p575
L1L
L1L
tp576
a(g6
(S'\x07\xe1\x06\n'
p577
tp578
Rp579
S'Multiple Product Codes'
p580
L1L
L1L
tp581
a(g6
(S'\x07\xe1\x06\x01'
p582
tp583
Rp584
S'NEDV'
p585
L12L
L24L
tp586
a(g6
(S'\x07\xe1\x06\x02'
p587
tp588
Rp589
S'NEDV'
p590
L15L
L21L
tp591
a(g6
(S'\x07\xe1\x06\x03'
p592
tp593
Rp594
S'NEDV'
p595
L12L
L19L
tp596
a(g6
(S'\x07\xe1\x06\x04'
p597
tp598
Rp599
S'NEDV'
p600
L13L
L21L
tp601
a(g6
(S'\x07\xe1\x06\x05'
p602
tp603
Rp604
S'NEDV'
p605
L12L
L24L
tp606
a(g6
(S'\x07\xe1\x06\x06'
p607
tp608
Rp609
S'NEDV'
p610
L13L
L19L
tp611
a(g6
(S'\x07\xe1\x06\x07'
p612
tp613
Rp614
S'NEDV'
p615
L13L
L21L
tp616
a(g6
(S'\x07\xe1\x06\x08'
p617
tp618
Rp619
S'NEDV'
p620
L14L
L25L
tp621
a(g6
(S'\x07\xe1\x06\t'
p622
tp623
Rp624
S'NEDV'
p625
L13L
L21L
tp626
a(g6
(S'\x07\xe1\x06\n'
p627
tp628
Rp629
S'NEDV'
p630
L11L
L22L
tp631
a(g6
(S'\x07\xe1\x06\x08'
p632
tp633
Rp634
S'South Division Business Class'
p635
L1L
L0L
tp636
a(g6
(S'\x07\xe1\x06\x01'
p637
tp638
Rp639
S'South Division Corporate (Also applies to NonUnivision and Univi'
p640
L18L
L48L
tp641
a(g6
(S'\x07\xe1\x06\x02'
p642
tp643
Rp644
S'South Division Corporate (Also applies to NonUnivision and Univi'
p645
L19L
L48L
tp646
a(g6
(S'\x07\xe1\x06\x03'
p647
tp648
Rp649
S'South Division Corporate (Also applies to NonUnivision and Univi'
p650
L16L
L46L
tp651
a(g6
(S'\x07\xe1\x06\x04'
p652
tp653
Rp654
S'South Division Corporate (Also applies to NonUnivision and Univi'
p655
L16L
L46L
tp656
a(g6
(S'\x07\xe1\x06\x05'
p657
tp658
Rp659
S'South Division Corporate (Also applies to NonUnivision and Univi'
p660
L17L
L44L
tp661
a(g6
(S'\x07\xe1\x06\x06'
p662
tp663
Rp664
S'South Division Corporate (Also applies to NonUnivision and Univi'
p665
L18L
L45L
tp666
a(g6
(S'\x07\xe1\x06\x07'
p667
tp668
Rp669
S'South Division Corporate (Also applies to NonUnivision and Univi'
p670
L19L
L45L
tp671
a(g6
(S'\x07\xe1\x06\x08'
p672
tp673
Rp674
S'South Division Corporate (Also applies to NonUnivision and Univi'
p675
L17L
L45L
tp676
a(g6
(S'\x07\xe1\x06\t'
p677
tp678
Rp679
S'South Division Corporate (Also applies to NonUnivision and Univi'
p680
L19L
L48L
tp681
a(g6
(S'\x07\xe1\x06\n'
p682
tp683
Rp684
S'South Division Corporate (Also applies to NonUnivision and Univi'
p685
L17L
L47L
tp686
a(g6
(S'\x07\xe1\x06\x01'
p687
tp688
Rp689
S'Triple Play'
p690
L5L
L44L
tp691
a(g6
(S'\x07\xe1\x06\x02'
p692
tp693
Rp694
S'Triple Play'
p695
L5L
L44L
tp696
a(g6
(S'\x07\xe1\x06\x03'
p697
tp698
Rp699
S'Triple Play'
p700
L5L
L44L
tp701
a(g6
(S'\x07\xe1\x06\x04'
p702
tp703
Rp704
S'Triple Play'
p705
L5L
L44L
tp706
a(g6
(S'\x07\xe1\x06\x05'
p707
tp708
Rp709
S'Triple Play'
p710
L4L
L43L
tp711
a(g6
(S'\x07\xe1\x06\x06'
p712
tp713
Rp714
S'Triple Play'
p715
L4L
L43L
tp716
a(g6
(S'\x07\xe1\x06\x07'
p717
tp718
Rp719
S'Triple Play'
p720
L5L
L44L
tp721
a(g6
(S'\x07\xe1\x06\x08'
p722
tp723
Rp724
S'Triple Play'
p725
L5L
L44L
tp726
a(g6
(S'\x07\xe1\x06\t'
p727
tp728
Rp729
S'Triple Play'
p730
L5L
L44L
tp731
a(g6
(S'\x07\xe1\x06\n'
p732
tp733
Rp734
S'Triple Play'
p735
L5L
L44L
tp736
a(g6
(S'\x07\xe1\x06\x01'
p737
tp738
Rp739
S'Video/TV'
p740
L8L
L5L
tp741
a(g6
(S'\x07\xe1\x06\x02'
p742
tp743
Rp744
S'Video/TV'
p745
L7L
L5L
tp746
a(g6
(S'\x07\xe1\x06\x03'
p747
tp748
Rp749
S'Video/TV'
p750
L10L
L7L
tp751
a(g6
(S'\x07\xe1\x06\x04'
p752
tp753
Rp754
S'Video/TV'
p755
L10L
L7L
tp756
a(g6
(S'\x07\xe1\x06\x05'
p757
tp758
Rp759
S'Video/TV'
p760
L8L
L5L
tp761
a(g6
(S'\x07\xe1\x06\x06'
p762
tp763
Rp764
S'Video/TV'
p765
L10L
L9L
tp766
a(g6
(S'\x07\xe1\x06\x07'
p767
tp768
Rp769
S'Video/TV'
p770
L8L
L6L
tp771
a(g6
(S'\x07\xe1\x06\x08'
p772
tp773
Rp774
S'Video/TV'
p775
L9L
L8L
tp776
a(g6
(S'\x07\xe1\x06\t'
p777
tp778
Rp779
S'Video/TV'
p780
L8L
L5L
tp781
a(g6
(S'\x07\xe1\x06\n'
p782
tp783
Rp784
S'Video/TV'
p785
L6L
L5L
tp786
a(g6
(S'\x07\xe1\x06\x01'
p787
tp788
Rp789
S'WSDV'
p790
L16L
L40L
tp791
a(g6
(S'\x07\xe1\x06\x02'
p792
tp793
Rp794
S'WSDV'
p795
L18L
L40L
tp796
a(g6
(S'\x07\xe1\x06\x03'
p797
tp798
Rp799
S'WSDV'
p800
L17L
L41L
tp801
a(g6
(S'\x07\xe1\x06\x04'
p802
tp803
Rp804
S'WSDV'
p805
L16L
L38L
tp806
a(g6
(S'\x07\xe1\x06\x05'
p807
tp808
Rp809
S'WSDV'
p810
L15L
L41L
tp811
a(g6
(S'\x07\xe1\x06\x06'
p812
tp813
Rp814
S'WSDV'
p815
L14L
L39L
tp816
a(g6
(S'\x07\xe1\x06\x07'
p817
tp818
Rp819
S'WSDV'
p820
L16L
L44L
tp821
a(g6
(S'\x07\xe1\x06\x08'
p822
tp823
Rp824
S'WSDV'
p825
L17L
L45L
tp826
a(g6
(S'\x07\xe1\x06\t'
p827
tp828
Rp829
S'WSDV'
p830
L15L
L43L
tp831
a(g6
(S'\x07\xe1\x06\n'
p832
tp833
Rp834
S'WSDV'
p835
L16L
L43L
tp836
a(g6
(S'\x07\xe1\x06\x01'
p837
tp838
Rp839
S'Xfinity Home Security'
p840
L4L
L16L
tp841
a(g6
(S'\x07\xe1\x06\x02'
p842
tp843
Rp844
S'Xfinity Home Security'
p845
L1L
L15L
tp846
a(g6
(S'\x07\xe1\x06\x03'
p847
tp848
Rp849
S'Xfinity Home Security'
p850
L1L
L15L
tp851
a(g6
(S'\x07\xe1\x06\x04'
p852
tp853
Rp854
S'Xfinity Home Security'
p855
L1L
L15L
tp856
a(g6
(S'\x07\xe1\x06\x05'
p857
tp858
Rp859
S'Xfinity Home Security'
p860
L1L
L15L
tp861
a(g6
(S'\x07\xe1\x06\x06'
p862
tp863
Rp864
S'Xfinity Home Security'
p865
L1L
L16L
tp866
a(g6
(S'\x07\xe1\x06\x07'
p867
tp868
Rp869
S'Xfinity Home Security'
p870
L1L
L16L
tp871
a(g6
(S'\x07\xe1\x06\x08'
p872
tp873
Rp874
S'Xfinity Home Security'
p875
L1L
L17L
tp876
a(g6
(S'\x07\xe1\x06\t'
p877
tp878
Rp879
S'Xfinity Home Security'
p880
L2L
L18L
tp881
a(g6
(S'\x07\xe1\x06\n'
p882
tp883
Rp884
S'Xfinity Home Security'
p885
L1L
L16L
tp886
a.